; ModuleID = '11/568.c'
source_filename = "11/568.c"
target datalayout = "e-m:e-p270:32:32-p271:32:32-p272:64:64-i64:64-f80:128-n8:16:32:64-S128"
target triple = "x86_64-pc-linux-gnu"

@.str = private unnamed_addr constant [7 x i8] c"%d%d%d\00", align 1
@.str.1 = private unnamed_addr constant [3 x i8] c"%d\00", align 1

; Function Attrs: noinline nounwind uwtable
define dso_local i32 @main() #0 {
  %1 = alloca i32, align 4
  %2 = alloca i32, align 4
  %3 = alloca i32, align 4
  %4 = alloca i32, align 4
  %5 = alloca i32, align 4
  %6 = alloca i32, align 4
  %7 = alloca i32, align 4
  %8 = alloca [13 x i32], align 16
  store i32 0, i32* %1, align 4
  %9 = call i32 (i8*, ...) @__isoc99_scanf(i8* getelementptr inbounds ([7 x i8], [7 x i8]* @.str, i64 0, i64 0), i32* %2, i32* %3, i32* %4)
  %10 = load i32, i32* %2, align 4
  %11 = srem i32 %10, 4
  %12 = icmp eq i32 %11, 0
  br i1 %12, label %13, label %18

13:                                               ; preds = %0
  %14 = load i32, i32* %2, align 4
  %15 = srem i32 %14, 100
  %16 = icmp ne i32 %15, 0
  br i1 %16, label %17, label %18

17:                                               ; preds = %13
  store i32 29, i32* %5, align 4
  br label %18

18:                                               ; preds = %17, %13, %0
  %19 = load i32, i32* %2, align 4
  %20 = srem i32 %19, 4
  %21 = icmp ne i32 %20, 0
  br i1 %21, label %22, label %23

22:                                               ; preds = %18
  store i32 28, i32* %5, align 4
  br label %23

23:                                               ; preds = %22, %18
  %24 = load i32, i32* %2, align 4
  %25 = srem i32 %24, 100
  %26 = icmp eq i32 %25, 0
  br i1 %26, label %27, label %32

27:                                               ; preds = %23
  %28 = load i32, i32* %2, align 4
  %29 = srem i32 %28, 400
  %30 = icmp ne i32 %29, 0
  br i1 %30, label %31, label %32

31:                                               ; preds = %27
  store i32 28, i32* %5, align 4
  br label %32

32:                                               ; preds = %31, %27, %23
  %33 = load i32, i32* %2, align 4
  %34 = srem i32 %33, 400
  %35 = icmp eq i32 %34, 0
  br i1 %35, label %36, label %37

36:                                               ; preds = %32
  store i32 29, i32* %5, align 4
  br label %37

37:                                               ; preds = %36, %32
  %38 = getelementptr inbounds [13 x i32], [13 x i32]* %8, i64 0, i64 0
  store i32 0, i32* %38, align 4
  %39 = getelementptr inbounds i32, i32* %38, i64 1
  store i32 31, i32* %39, align 4
  %40 = getelementptr inbounds i32, i32* %39, i64 1
  %41 = load i32, i32* %5, align 4
  store i32 %41, i32* %40, align 4
  %42 = getelementptr inbounds i32, i32* %40, i64 1
  store i32 31, i32* %42, align 4
  %43 = getelementptr inbounds i32, i32* %42, i64 1
  store i32 30, i32* %43, align 4
  %44 = getelementptr inbounds i32, i32* %43, i64 1
  store i32 31, i32* %44, align 4
  %45 = getelementptr inbounds i32, i32* %44, i64 1
  store i32 30, i32* %45, align 4
  %46 = getelementptr inbounds i32, i32* %45, i64 1
  store i32 31, i32* %46, align 4
  %47 = getelementptr inbounds i32, i32* %46, i64 1
  store i32 31, i32* %47, align 4
  %48 = getelementptr inbounds i32, i32* %47, i64 1
  store i32 30, i32* %48, align 4
  %49 = getelementptr inbounds i32, i32* %48, i64 1
  store i32 31, i32* %49, align 4
  %50 = getelementptr inbounds i32, i32* %49, i64 1
  store i32 30, i32* %50, align 4
  %51 = getelementptr inbounds i32, i32* %50, i64 1
  store i32 31, i32* %51, align 4
  %52 = load i32, i32* %3, align 4
  %53 = icmp eq i32 %52, 1
  br i1 %53, label %54, label %56

54:                                               ; preds = %37
  %55 = load i32, i32* %4, align 4
  store i32 %55, i32* %7, align 4
  br label %58

56:                                               ; preds = %37
  %57 = load i32, i32* %4, align 4
  store i32 %57, i32* %7, align 4
  br label %58

58:                                               ; preds = %56, %54
  store i32 1, i32* %6, align 4
  br label %59

59:                                               ; preds = %70, %58
  %60 = load i32, i32* %6, align 4
  %61 = load i32, i32* %3, align 4
  %62 = icmp slt i32 %60, %61
  br i1 %62, label %63, label %73

63:                                               ; preds = %59
  %64 = load i32, i32* %7, align 4
  %65 = load i32, i32* %6, align 4
  %66 = sext i32 %65 to i64
  %67 = getelementptr inbounds [13 x i32], [13 x i32]* %8, i64 0, i64 %66
  %68 = load i32, i32* %67, align 4
  %69 = add nsw i32 %64, %68
  store i32 %69, i32* %7, align 4
  br label %70

70:                                               ; preds = %63
  %71 = load i32, i32* %6, align 4
  %72 = add nsw i32 %71, 1
  store i32 %72, i32* %6, align 4
  br label %59

73:                                               ; preds = %59
  %74 = load i32, i32* %7, align 4
  %75 = call i32 (i8*, ...) @printf(i8* getelementptr inbounds ([3 x i8], [3 x i8]* @.str.1, i64 0, i64 0), i32 %74)
  ret i32 0
}

declare dso_local i32 @__isoc99_scanf(i8*, ...) #1

declare dso_local i32 @printf(i8*, ...) #1


!llvm.module.flags = !{!0}
!llvm.ident = !{!1}

!0 = !{i32 1, !"wchar_size", i32 4}
!1 = !{!"clang version 10.0.0-4ubuntu1 "}
